target datalayout = "e-m:e-p270:32:32-p271:32:32-p272:64:64-i64:64-i128:128-f80:128-n8:16:32:64-S128"
target triple = "x86_64-pc-linux-gnu"

%class.btTransform = type { %class.btMatrix3x3, %class.btVector3 }
%class.btAlignedObjectArray = type <{ [4 x i8], i32, i32, [4 x i8], ptr, i8, [7 x i8] }>
%class.btMatrix3x3 = type { [3 x %class.btVector3] }
%class.btVector3 = type { [4 x float] }
%"struct.btVehicleRaycaster::btVehicleRaycasterResult" = type { %class.btVector3, %class.btVector3, float }
%class.btCollisionObject = type <{ ptr, %class.btTransform, %class.btTransform, %class.btVector3, %class.btVector3, %class.btVector3, i32, float, ptr, ptr, ptr, ptr, i32, i32, i32, i32, i32, float, float, float, float, float, float, float, i32, [4 x i8], ptr, i32, i32, i32, float, float, float, i32, [4 x i8], %class.btAlignedObjectArray, i32, %class.btVector3, [4 x i8] }>
%"struct.btCollisionWorld::ClosestRayResultCallback" = type { %"struct.btCollisionWorld::RayResultCallback.base", %class.btVector3, %class.btVector3, %class.btVector3, %class.btVector3, [4 x i8] }
%"struct.btCollisionWorld::RayResultCallback.base" = type <{ ptr, float, [4 x i8], ptr, i32, i32, i32 }>
%class.btDefaultVehicleRaycaster = type { %struct.btVehicleRaycaster, ptr }
%struct.btVehicleRaycaster = type { ptr }
%"struct.btCollisionWorld::RayResultCallback" = type <{ ptr, float, [4 x i8], ptr, i32, i32, i32, [4 x i8] }>

; Function Attrs: inlinehint mustprogress nounwind uwtable
define linkonce_odr dso_local noundef float @_ZNK9btVector33dotERKS_(ptr noundef nonnull align 4 dereferenceable(16) %0, ptr noundef nonnull align 4 dereferenceable(16) %1) #5 comdat align 2 {
  %3 = alloca ptr, align 8
  %4 = alloca ptr, align 8
  store ptr %0, ptr %3, align 8, !tbaa !15
  store ptr %1, ptr %4, align 8, !tbaa !15
  %5 = load ptr, ptr %3, align 8
  %6 = getelementptr inbounds nuw %class.btVector3, ptr %5, i32 0, i32 0
  %7 = getelementptr inbounds [4 x float], ptr %6, i64 0, i64 0
  %8 = load float, ptr %7, align 4, !tbaa !13
  %9 = load ptr, ptr %4, align 8, !tbaa !15
  %10 = getelementptr inbounds nuw %class.btVector3, ptr %9, i32 0, i32 0
  %11 = getelementptr inbounds [4 x float], ptr %10, i64 0, i64 0
  %12 = load float, ptr %11, align 4, !tbaa !13
  %13 = getelementptr inbounds nuw %class.btVector3, ptr %5, i32 0, i32 0
  %14 = getelementptr inbounds [4 x float], ptr %13, i64 0, i64 1
  %15 = load float, ptr %14, align 4, !tbaa !13
  %16 = load ptr, ptr %4, align 8, !tbaa !15
  %17 = getelementptr inbounds nuw %class.btVector3, ptr %16, i32 0, i32 0
  %18 = getelementptr inbounds [4 x float], ptr %17, i64 0, i64 1
  %19 = load float, ptr %18, align 4, !tbaa !13
  %20 = fmul float %15, %19
  %21 = call float @llvm.fmuladd.f32(float %8, float %12, float %20)
  %22 = getelementptr inbounds nuw %class.btVector3, ptr %5, i32 0, i32 0
  %23 = getelementptr inbounds [4 x float], ptr %22, i64 0, i64 2
  %24 = load float, ptr %23, align 4, !tbaa !13
  %25 = load ptr, ptr %4, align 8, !tbaa !15
  %26 = getelementptr inbounds nuw %class.btVector3, ptr %25, i32 0, i32 0
  %27 = getelementptr inbounds [4 x float], ptr %26, i64 0, i64 2
  %28 = load float, ptr %27, align 4, !tbaa !13
  %29 = call float @llvm.fmuladd.f32(float %24, float %28, float %21)
  ret float %29
}

; Function Attrs: inlinehint mustprogress nounwind uwtable
define linkonce_odr dso_local noundef nonnull align 4 dereferenceable(16) ptr @_ZN9btVector3mLERKf(ptr noundef nonnull align 4 dereferenceable(16) %0, ptr noundef nonnull align 4 dereferenceable(4) %1) #5 comdat align 2 {
  %3 = alloca ptr, align 8
  %4 = alloca ptr, align 8
  store ptr %0, ptr %3, align 8, !tbaa !15
  store ptr %1, ptr %4, align 8, !tbaa !17
  %5 = load ptr, ptr %3, align 8
  %6 = load ptr, ptr %4, align 8, !tbaa !17
  %7 = load float, ptr %6, align 4, !tbaa !13
  %8 = getelementptr inbounds nuw %class.btVector3, ptr %5, i32 0, i32 0
  %9 = getelementptr inbounds [4 x float], ptr %8, i64 0, i64 0
  %10 = load float, ptr %9, align 4, !tbaa !13
  %11 = fmul float %10, %7
  store float %11, ptr %9, align 4, !tbaa !13
  %12 = load ptr, ptr %4, align 8, !tbaa !17
  %13 = load float, ptr %12, align 4, !tbaa !13
  %14 = getelementptr inbounds nuw %class.btVector3, ptr %5, i32 0, i32 0
  %15 = getelementptr inbounds [4 x float], ptr %14, i64 0, i64 1
  %16 = load float, ptr %15, align 4, !tbaa !13
  %17 = fmul float %16, %13
  store float %17, ptr %15, align 4, !tbaa !13
  %18 = load ptr, ptr %4, align 8, !tbaa !17
  %19 = load float, ptr %18, align 4, !tbaa !13
  %20 = getelementptr inbounds nuw %class.btVector3, ptr %5, i32 0, i32 0
  %21 = getelementptr inbounds [4 x float], ptr %20, i64 0, i64 2
  %22 = load float, ptr %21, align 4, !tbaa !13
  %23 = fmul float %22, %19
  store float %23, ptr %21, align 4, !tbaa !13
  ret ptr %5
}

; Function Attrs: inlinehint mustprogress nounwind uwtable
define linkonce_odr dso_local noundef float @_Z6btSqrtf(float noundef %0) #5 comdat {
  %2 = alloca float, align 4
  store float %0, ptr %2, align 4, !tbaa !13
  %3 = load float, ptr %2, align 4, !tbaa !13
  %4 = call float @sqrtf(float noundef %3) #3, !tbaa !9
  ret float %4
}

; Function Attrs: inlinehint mustprogress nounwind uwtable
define linkonce_odr dso_local noundef float @_ZNK9btVector37length2Ev(ptr noundef nonnull align 4 dereferenceable(16) %0) #5 comdat align 2 {
  %2 = alloca ptr, align 8
  store ptr %0, ptr %2, align 8, !tbaa !15
  %3 = load ptr, ptr %2, align 8
  %4 = call noundef float @_ZNK9btVector33dotERKS_(ptr noundef nonnull align 4 dereferenceable(16) %3, ptr noundef nonnull align 4 dereferenceable(16) %3)
  ret float %4
}

; Function Attrs: inlinehint mustprogress uwtable
define linkonce_odr dso_local noundef nonnull align 4 dereferenceable(16) ptr @_ZN9btVector3dVERKf(ptr noundef nonnull align 4 dereferenceable(16) %0, ptr noundef nonnull align 4 dereferenceable(4) %1) #8 comdat align 2 {
  %3 = alloca ptr, align 8
  %4 = alloca ptr, align 8
  %5 = alloca float, align 4
  store ptr %0, ptr %3, align 8, !tbaa !15
  store ptr %1, ptr %4, align 8, !tbaa !17
  %6 = load ptr, ptr %3, align 8
  call void @llvm.lifetime.start.p0(i64 4, ptr %5) #3
  %7 = load ptr, ptr %4, align 8, !tbaa !17
  %8 = load float, ptr %7, align 4, !tbaa !13
  %9 = fdiv float 1.000000e+00, %8
  store float %9, ptr %5, align 4, !tbaa !13
  %10 = call noundef nonnull align 4 dereferenceable(16) ptr @_ZN9btVector3mLERKf(ptr noundef nonnull align 4 dereferenceable(16) %6, ptr noundef nonnull align 4 dereferenceable(4) %5)
  call void @llvm.lifetime.end.p0(i64 4, ptr %5) #3
  ret ptr %10
}

; Function Attrs: inlinehint mustprogress uwtable
define linkonce_odr dso_local noundef float @_ZNK9btVector36lengthEv(ptr noundef nonnull align 4 dereferenceable(16) %0) #8 comdat align 2 {
  %2 = alloca ptr, align 8
  store ptr %0, ptr %2, align 8, !tbaa !15
  %3 = load ptr, ptr %2, align 8
  %4 = call noundef float @_ZNK9btVector37length2Ev(ptr noundef nonnull align 4 dereferenceable(16) %3)
  %5 = call noundef float @_Z6btSqrtf(float noundef %4)
  ret float %5
}

; Function Attrs: mustprogress nounwind uwtable
define linkonce_odr dso_local noundef i32 @_ZNK17btCollisionObject15getInternalTypeEv(ptr noundef nonnull align 8 dereferenceable(372) %0) #1 comdat align 2 {
  %2 = alloca ptr, align 8
  store ptr %0, ptr %2, align 8, !tbaa !176
  %3 = load ptr, ptr %2, align 8
  %4 = getelementptr inbounds nuw %class.btCollisionObject, ptr %3, i32 0, i32 24
  %5 = load i32, ptr %4, align 8, !tbaa !207
  ret i32 %5
}

; Function Attrs: inlinehint mustprogress nounwind uwtable
define linkonce_odr dso_local void @_ZN9btVector3C2Ev(ptr noundef nonnull align 4 dereferenceable(16) %0) unnamed_addr #5 comdat align 2 {
  %2 = alloca ptr, align 8
  store ptr %0, ptr %2, align 8, !tbaa !15
  ret void
}

; Function Attrs: mustprogress nounwind uwtable
define linkonce_odr dso_local void @_ZN16btCollisionWorld17RayResultCallbackC2Ev(ptr noundef nonnull align 8 dereferenceable(36) %0) unnamed_addr #1 comdat align 2 {
  %2 = alloca ptr, align 8
  store ptr %0, ptr %2, align 8, !tbaa !174
  %3 = load ptr, ptr %2, align 8
  store ptr getelementptr inbounds inrange(-16, 32) ({ [6 x ptr] }, ptr @_ZTVN16btCollisionWorld17RayResultCallbackE, i32 0, i32 0, i32 2), ptr %3, align 8, !tbaa !21
  %4 = getelementptr inbounds nuw %"struct.btCollisionWorld::RayResultCallback", ptr %3, i32 0, i32 1
  store float 1.000000e+00, ptr %4, align 8, !tbaa !171
  %5 = getelementptr inbounds nuw %"struct.btCollisionWorld::RayResultCallback", ptr %3, i32 0, i32 3
  store ptr null, ptr %5, align 8, !tbaa !168
  %6 = getelementptr inbounds nuw %"struct.btCollisionWorld::RayResultCallback", ptr %3, i32 0, i32 4
  store i32 1, ptr %6, align 8, !tbaa !194
  %7 = getelementptr inbounds nuw %"struct.btCollisionWorld::RayResultCallback", ptr %3, i32 0, i32 5
  store i32 -1, ptr %7, align 4, !tbaa !195
  %8 = getelementptr inbounds nuw %"struct.btCollisionWorld::RayResultCallback", ptr %3, i32 0, i32 6
  store i32 0, ptr %8, align 8, !tbaa !196
  ret void
}

; Function Attrs: mustprogress nounwind uwtable
define linkonce_odr dso_local void @_ZN16btCollisionWorld17RayResultCallbackD2Ev(ptr noundef nonnull align 8 dereferenceable(36) %0) unnamed_addr #1 comdat align 2 {
  %2 = alloca ptr, align 8
  store ptr %0, ptr %2, align 8, !tbaa !174
  ret void
}

; Function Attrs: inlinehint mustprogress uwtable
define linkonce_odr dso_local noundef nonnull align 4 dereferenceable(16) ptr @_ZN9btVector39normalizeEv(ptr noundef nonnull align 4 dereferenceable(16) %0) #8 comdat align 2 {
  %2 = alloca ptr, align 8
  %3 = alloca float, align 4
  store ptr %0, ptr %2, align 8, !tbaa !15
  %4 = load ptr, ptr %2, align 8
  call void @llvm.lifetime.start.p0(i64 4, ptr %3) #3
  %5 = call noundef float @_ZNK9btVector36lengthEv(ptr noundef nonnull align 4 dereferenceable(16) %4)
  store float %5, ptr %3, align 4, !tbaa !13
  %6 = call noundef nonnull align 4 dereferenceable(16) ptr @_ZN9btVector3dVERKf(ptr noundef nonnull align 4 dereferenceable(16) %4, ptr noundef nonnull align 4 dereferenceable(4) %3)
  call void @llvm.lifetime.end.p0(i64 4, ptr %3) #3
  ret ptr %6
}

; Function Attrs: inlinehint mustprogress nounwind uwtable
define linkonce_odr dso_local noundef zeroext i1 @_ZNK17btCollisionObject18hasContactResponseEv(ptr noundef nonnull align 8 dereferenceable(372) %0) #5 comdat align 2 {
  %2 = alloca ptr, align 8
  store ptr %0, ptr %2, align 8, !tbaa !176
  %3 = load ptr, ptr %2, align 8
  %4 = getelementptr inbounds nuw %class.btCollisionObject, ptr %3, i32 0, i32 12
  %5 = load i32, ptr %4, align 8, !tbaa !177
  %6 = and i32 %5, 4
  %7 = icmp eq i32 %6, 0
  ret i1 %7
}

; Function Attrs: mustprogress uwtable
define linkonce_odr dso_local noundef ptr @_ZN11btRigidBody6upcastEPK17btCollisionObject(ptr noundef %0) #2 comdat align 2 {
  %2 = alloca ptr, align 8
  %3 = alloca ptr, align 8
  store ptr %0, ptr %3, align 8, !tbaa !176
  %4 = load ptr, ptr %3, align 8, !tbaa !176
  %5 = call noundef i32 @_ZNK17btCollisionObject15getInternalTypeEv(ptr noundef nonnull align 8 dereferenceable(372) %4)
  %6 = and i32 %5, 2
  %7 = icmp ne i32 %6, 0
  br i1 %7, label %8, label %10

8:                                                ; preds = %1
  %9 = load ptr, ptr %3, align 8, !tbaa !176
  store ptr %9, ptr %2, align 8
  br label %11

10:                                               ; preds = %1
  store ptr null, ptr %2, align 8
  br label %11

11:                                               ; preds = %10, %8
  %12 = load ptr, ptr %2, align 8
  ret ptr %12
}

; Function Attrs: mustprogress nounwind uwtable
define linkonce_odr dso_local noundef zeroext i1 @_ZNK16btCollisionWorld17RayResultCallback6hasHitEv(ptr noundef nonnull align 8 dereferenceable(36) %0) #1 comdat align 2 {
  %2 = alloca ptr, align 8
  store ptr %0, ptr %2, align 8, !tbaa !174
  %3 = load ptr, ptr %2, align 8
  %4 = getelementptr inbounds nuw %"struct.btCollisionWorld::RayResultCallback", ptr %3, i32 0, i32 3
  %5 = load ptr, ptr %4, align 8, !tbaa !168
  %6 = icmp ne ptr %5, null
  ret i1 %6
}

; Function Attrs: mustprogress uwtable
define linkonce_odr dso_local void @_ZN16btCollisionWorld24ClosestRayResultCallbackC2ERK9btVector3S3_(ptr noundef nonnull align 8 dereferenceable(100) %0, ptr noundef nonnull align 4 dereferenceable(16) %1, ptr noundef nonnull align 4 dereferenceable(16) %2) unnamed_addr #2 comdat align 2 personality ptr @__gxx_personality_v0 {
  %4 = alloca ptr, align 8
  %5 = alloca ptr, align 8
  %6 = alloca ptr, align 8
  %7 = alloca ptr, align 8
  %8 = alloca i32, align 4
  store ptr %0, ptr %4, align 8, !tbaa !172
  store ptr %1, ptr %5, align 8, !tbaa !15
  store ptr %2, ptr %6, align 8, !tbaa !15
  %9 = load ptr, ptr %4, align 8
  call void @_ZN16btCollisionWorld17RayResultCallbackC2Ev(ptr noundef nonnull align 8 dereferenceable(36) %9)
  store ptr getelementptr inbounds inrange(-16, 32) ({ [6 x ptr] }, ptr @_ZTVN16btCollisionWorld24ClosestRayResultCallbackE, i32 0, i32 0, i32 2), ptr %9, align 8, !tbaa !21
  %10 = getelementptr inbounds nuw %"struct.btCollisionWorld::ClosestRayResultCallback", ptr %9, i32 0, i32 1
  %11 = load ptr, ptr %5, align 8, !tbaa !15
  call void @llvm.memcpy.p0.p0.i64(ptr align 4 %10, ptr align 4 %11, i64 16, i1 false), !tbaa.struct !56
  %12 = getelementptr inbounds nuw %"struct.btCollisionWorld::ClosestRayResultCallback", ptr %9, i32 0, i32 2
  %13 = load ptr, ptr %6, align 8, !tbaa !15
  call void @llvm.memcpy.p0.p0.i64(ptr align 4 %12, ptr align 4 %13, i64 16, i1 false), !tbaa.struct !56
  %14 = getelementptr inbounds nuw %"struct.btCollisionWorld::ClosestRayResultCallback", ptr %9, i32 0, i32 3
  invoke void @_ZN9btVector3C2Ev(ptr noundef nonnull align 4 dereferenceable(16) %14)
          to label %15 unwind label %18

15:                                               ; preds = %3
  %16 = getelementptr inbounds nuw %"struct.btCollisionWorld::ClosestRayResultCallback", ptr %9, i32 0, i32 4
  invoke void @_ZN9btVector3C2Ev(ptr noundef nonnull align 4 dereferenceable(16) %16)
          to label %17 unwind label %18

17:                                               ; preds = %15
  ret void

18:                                               ; preds = %15, %3
  %19 = landingpad { ptr, i32 }
          cleanup
  %20 = extractvalue { ptr, i32 } %19, 0
  store ptr %20, ptr %7, align 8
  %21 = extractvalue { ptr, i32 } %19, 1
  store i32 %21, ptr %8, align 4
  call void @_ZN16btCollisionWorld17RayResultCallbackD2Ev(ptr noundef nonnull align 8 dereferenceable(36) %9) #3
  br label %22

22:                                               ; preds = %18
  %23 = load ptr, ptr %7, align 8
  %24 = load i32, ptr %8, align 4
  %25 = insertvalue { ptr, i32 } poison, ptr %23, 0
  %26 = insertvalue { ptr, i32 } %25, i32 %24, 1
  resume { ptr, i32 } %26
}

; Function Attrs: mustprogress uwtable
define dso_local noundef ptr @_ZN25btDefaultVehicleRaycaster7castRayERK9btVector3S2_RN18btVehicleRaycaster24btVehicleRaycasterResultE(ptr noundef nonnull align 8 dereferenceable(16) %0, ptr noundef nonnull align 4 dereferenceable(16) %1, ptr noundef nonnull align 4 dereferenceable(16) %2, ptr noundef nonnull align 4 dereferenceable(36) %3) unnamed_addr #2 align 2 personality ptr @__gxx_personality_v0 {
  %5 = alloca ptr, align 8
  %6 = alloca ptr, align 8
  %7 = alloca ptr, align 8
  %8 = alloca ptr, align 8
  %9 = alloca ptr, align 8
  %10 = alloca %"struct.btCollisionWorld::ClosestRayResultCallback", align 8
  %11 = alloca ptr, align 8
  %12 = alloca i32, align 4
  %13 = alloca ptr, align 8
  %14 = alloca i32, align 4
  store ptr %0, ptr %6, align 8, !tbaa !162
  store ptr %1, ptr %7, align 8, !tbaa !15
  store ptr %2, ptr %8, align 8, !tbaa !15
  store ptr %3, ptr %9, align 8, !tbaa !129
  %15 = load ptr, ptr %6, align 8
  call void @llvm.lifetime.start.p0(i64 104, ptr %10) #3
  %16 = load ptr, ptr %7, align 8, !tbaa !15
  %17 = load ptr, ptr %8, align 8, !tbaa !15
  call void @_ZN16btCollisionWorld24ClosestRayResultCallbackC2ERK9btVector3S3_(ptr noundef nonnull align 8 dereferenceable(100) %10, ptr noundef nonnull align 4 dereferenceable(16) %16, ptr noundef nonnull align 4 dereferenceable(16) %17)
  %18 = getelementptr inbounds nuw %class.btDefaultVehicleRaycaster, ptr %15, i32 0, i32 1
  %19 = load ptr, ptr %18, align 8, !tbaa !164
  %20 = load ptr, ptr %7, align 8, !tbaa !15
  %21 = load ptr, ptr %8, align 8, !tbaa !15
  %22 = load ptr, ptr %19, align 8, !tbaa !21
  %23 = getelementptr inbounds ptr, ptr %22, i64 8
  %24 = load ptr, ptr %23, align 8
  invoke void %24(ptr noundef nonnull align 8 dereferenceable(121) %19, ptr noundef nonnull align 4 dereferenceable(16) %20, ptr noundef nonnull align 4 dereferenceable(16) %21, ptr noundef nonnull align 8 dereferenceable(36) %10)
          to label %25 unwind label %55

25:                                               ; preds = %4
  %26 = invoke noundef zeroext i1 @_ZNK16btCollisionWorld17RayResultCallback6hasHitEv(ptr noundef nonnull align 8 dereferenceable(36) %10)
          to label %27 unwind label %55

27:                                               ; preds = %25
  br i1 %26, label %28, label %67

28:                                               ; preds = %27
  call void @llvm.lifetime.start.p0(i64 8, ptr %13) #3
  %29 = getelementptr inbounds nuw %"struct.btCollisionWorld::RayResultCallback", ptr %10, i32 0, i32 3
  %30 = load ptr, ptr %29, align 8, !tbaa !168
  %31 = invoke noundef ptr @_ZN11btRigidBody6upcastEPK17btCollisionObject(ptr noundef %30)
          to label %32 unwind label %59

32:                                               ; preds = %28
  store ptr %31, ptr %13, align 8, !tbaa !19
  %33 = load ptr, ptr %13, align 8, !tbaa !19
  %34 = icmp ne ptr %33, null
  br i1 %34, label %35, label %63

35:                                               ; preds = %32
  %36 = load ptr, ptr %13, align 8, !tbaa !19
  %37 = invoke noundef zeroext i1 @_ZNK17btCollisionObject18hasContactResponseEv(ptr noundef nonnull align 8 dereferenceable(372) %36)
          to label %38 unwind label %59

38:                                               ; preds = %35
  br i1 %37, label %39, label %63

39:                                               ; preds = %38
  %40 = getelementptr inbounds nuw %"struct.btCollisionWorld::ClosestRayResultCallback", ptr %10, i32 0, i32 4
  %41 = load ptr, ptr %9, align 8, !tbaa !129
  %42 = getelementptr inbounds nuw %"struct.btVehicleRaycaster::btVehicleRaycasterResult", ptr %41, i32 0, i32 0
  call void @llvm.memcpy.p0.p0.i64(ptr align 4 %42, ptr align 4 %40, i64 16, i1 false), !tbaa.struct !56
  %43 = getelementptr inbounds nuw %"struct.btCollisionWorld::ClosestRayResultCallback", ptr %10, i32 0, i32 3
  %44 = load ptr, ptr %9, align 8, !tbaa !129
  %45 = getelementptr inbounds nuw %"struct.btVehicleRaycaster::btVehicleRaycasterResult", ptr %44, i32 0, i32 1
  call void @llvm.memcpy.p0.p0.i64(ptr align 4 %45, ptr align 4 %43, i64 16, i1 false), !tbaa.struct !56
  %46 = load ptr, ptr %9, align 8, !tbaa !129
  %47 = getelementptr inbounds nuw %"struct.btVehicleRaycaster::btVehicleRaycasterResult", ptr %46, i32 0, i32 1
  %48 = invoke noundef nonnull align 4 dereferenceable(16) ptr @_ZN9btVector39normalizeEv(ptr noundef nonnull align 4 dereferenceable(16) %47)
          to label %49 unwind label %59

49:                                               ; preds = %39
  %50 = getelementptr inbounds nuw %"struct.btCollisionWorld::RayResultCallback", ptr %10, i32 0, i32 1
  %51 = load float, ptr %50, align 8, !tbaa !171
  %52 = load ptr, ptr %9, align 8, !tbaa !129
  %53 = getelementptr inbounds nuw %"struct.btVehicleRaycaster::btVehicleRaycasterResult", ptr %52, i32 0, i32 2
  store float %51, ptr %53, align 4, !tbaa !127
  %54 = load ptr, ptr %13, align 8, !tbaa !19
  store ptr %54, ptr %5, align 8
  store i32 1, ptr %14, align 4
  br label %64

55:                                               ; preds = %25, %4
  %56 = landingpad { ptr, i32 }
          cleanup
  %57 = extractvalue { ptr, i32 } %56, 0
  store ptr %57, ptr %11, align 8
  %58 = extractvalue { ptr, i32 } %56, 1
  store i32 %58, ptr %12, align 4
  br label %70

59:                                               ; preds = %39, %35, %28
  %60 = landingpad { ptr, i32 }
          cleanup
  %61 = extractvalue { ptr, i32 } %60, 0
  store ptr %61, ptr %11, align 8
  %62 = extractvalue { ptr, i32 } %60, 1
  store i32 %62, ptr %12, align 4
  call void @llvm.lifetime.end.p0(i64 8, ptr %13) #3
  br label %70

63:                                               ; preds = %38, %32
  store i32 0, ptr %14, align 4
  br label %64

64:                                               ; preds = %63, %49
  call void @llvm.lifetime.end.p0(i64 8, ptr %13) #3
  %65 = load i32, ptr %14, align 4
  switch i32 %65, label %68 [
    i32 0, label %66
  ]

66:                                               ; preds = %64
  br label %67

67:                                               ; preds = %66, %27
  store ptr null, ptr %5, align 8
  store i32 1, ptr %14, align 4
  br label %68

68:                                               ; preds = %67, %64
  call void @_ZN16btCollisionWorld17RayResultCallbackD2Ev(ptr noundef nonnull align 8 dereferenceable(100) %10) #3
  call void @llvm.lifetime.end.p0(i64 104, ptr %10) #3
  %69 = load ptr, ptr %5, align 8
  ret ptr %69

70:                                               ; preds = %59, %55
  call void @_ZN16btCollisionWorld17RayResultCallbackD2Ev(ptr noundef nonnull align 8 dereferenceable(100) %10) #3
  call void @llvm.lifetime.end.p0(i64 104, ptr %10) #3
  br label %71

71:                                               ; preds = %70
  %72 = load ptr, ptr %11, align 8
  %73 = load i32, ptr %12, align 4
  %74 = insertvalue { ptr, i32 } poison, ptr %72, 0
  %75 = insertvalue { ptr, i32 } %74, i32 %73, 1
  resume { ptr, i32 } %75
}