; Function Attrs: mustprogress uwtable
define dso_local noundef ptr @_ZN25btDefaultVehicleRaycaster7castRayERK9btVector3S2_RN18btVehicleRaycaster24btVehicleRaycasterResultE(ptr noundef nonnull readonly align 8 captures(none) dereferenceable(16) %0, ptr noundef nonnull align 4 dereferenceable(16) %1, ptr noundef nonnull align 4 dereferenceable(16) %2, ptr noundef nonnull align 4 captures(none) dereferenceable(36) %3) unnamed_addr #0 align 2 personality ptr @__gxx_personality_v0 {
  %5 = alloca %"struct.btCollisionWorld::ClosestRayResultCallback", align 8
  call void @llvm.lifetime.start.p0(i64 104, ptr nonnull %5) #21
  %6 = getelementptr inbounds nuw i8, ptr %5, i64 8
  store float 1.000000e+00, ptr %6, align 8, !tbaa !128
  %7 = getelementptr inbounds nuw i8, ptr %5, i64 16
  store ptr null, ptr %7, align 8, !tbaa !131
  %8 = getelementptr inbounds nuw i8, ptr %5, i64 24
  store i32 1, ptr %8, align 8, !tbaa !132
  %9 = getelementptr inbounds nuw i8, ptr %5, i64 28
  store i32 -1, ptr %9, align 4, !tbaa !133
  %10 = getelementptr inbounds nuw i8, ptr %5, i64 32
  store i32 0, ptr %10, align 8, !tbaa !134
  store ptr getelementptr inbounds nuw inrange(-16, 32) (i8, ptr @_ZTVN16btCollisionWorld24ClosestRayResultCallbackE, i64 16), ptr %5, align 8, !tbaa !5
  %11 = getelementptr inbounds nuw i8, ptr %5, i64 36
  call void @llvm.memcpy.p0.p0.i64(ptr noundef nonnull align 4 dereferenceable(16) %11, ptr noundef nonnull align 4 dereferenceable(16) %1, i64 16, i1 false), !tbaa.struct !67
  %12 = getelementptr inbounds nuw i8, ptr %5, i64 52
  call void @llvm.memcpy.p0.p0.i64(ptr noundef nonnull align 4 dereferenceable(16) %12, ptr noundef nonnull align 4 dereferenceable(16) %2, i64 16, i1 false), !tbaa.struct !67
  %13 = getelementptr inbounds nuw i8, ptr %0, i64 8
  %14 = load ptr, ptr %13, align 8, !tbaa !135
  %15 = load ptr, ptr %14, align 8, !tbaa !5
  %16 = getelementptr inbounds nuw i8, ptr %15, i64 64
  %17 = load ptr, ptr %16, align 8
  call void %17(ptr noundef nonnull align 8 dereferenceable(121) %14, ptr noundef nonnull align 4 dereferenceable(16) %1, ptr noundef nonnull align 4 dereferenceable(16) %2, ptr noundef nonnull align 8 dereferenceable(36) %5)
  %18 = load ptr, ptr %7, align 8, !tbaa !131
  %.not = icmp eq ptr %18, null
  br i1 %.not, label %45, label %19

19:                                               ; preds = %4
  %20 = getelementptr inbounds nuw i8, ptr %18, i64 272
  %21 = load i32, ptr %20, align 8, !tbaa !139
  %22 = and i32 %21, 2
  %.not.i = icmp eq i32 %22, 0
  br i1 %.not.i, label %45, label %23

23:                                               ; preds = %19
  %24 = getelementptr inbounds nuw i8, ptr %18, i64 224
  %25 = load i32, ptr %24, align 8, !tbaa !140
  %26 = and i32 %25, 4
  %27 = icmp eq i32 %26, 0
  br i1 %27, label %.critedge, label %45

.critedge:                                        ; preds = %23
  %28 = getelementptr inbounds nuw i8, ptr %5, i64 84
  call void @llvm.memcpy.p0.p0.i64(ptr noundef nonnull align 4 dereferenceable(16) %3, ptr noundef nonnull align 4 dereferenceable(16) %28, i64 16, i1 false), !tbaa.struct !67
  %29 = getelementptr inbounds nuw i8, ptr %5, i64 68
  %30 = getelementptr inbounds nuw i8, ptr %3, i64 16
  call void @llvm.memcpy.p0.p0.i64(ptr noundef nonnull align 4 dereferenceable(16) %30, ptr noundef nonnull align 4 dereferenceable(16) %29, i64 16, i1 false), !tbaa.struct !67
  %31 = load float, ptr %30, align 4, !tbaa !64
  %32 = getelementptr inbounds nuw i8, ptr %3, i64 20
  %33 = load float, ptr %32, align 4, !tbaa !64
  %34 = fmul float %33, %33
  %35 = call float @llvm.fmuladd.f32(float %31, float %31, float %34)
  %36 = getelementptr inbounds nuw i8, ptr %3, i64 24
  %37 = load float, ptr %36, align 4, !tbaa !64
  %38 = call noundef float @llvm.fmuladd.f32(float %37, float %37, float %35)
  %sqrt.i.i = call noundef float @llvm.sqrt.f32(float %38)
  %39 = fdiv float 1.000000e+00, %sqrt.i.i
  %40 = fmul float %31, %39
  store float %40, ptr %30, align 4, !tbaa !64
  %41 = fmul float %33, %39
  store float %41, ptr %32, align 4, !tbaa !64
  %42 = fmul float %37, %39
  store float %42, ptr %36, align 4, !tbaa !64
  %43 = load float, ptr %6, align 8, !tbaa !128
  %44 = getelementptr inbounds nuw i8, ptr %3, i64 32
  store float %43, ptr %44, align 4, !tbaa !96
  br label %45

45:                                               ; preds = %4, %19, %23, %.critedge
  %.1 = phi ptr [ %18, %.critedge ], [ null, %23 ], [ null, %19 ], [ null, %4 ]
  call void @llvm.lifetime.end.p0(i64 104, ptr nonnull %5) #21
  ret ptr %.1
}